; Function Attrs: nounwind uwtable
define internal range(i32 -1, 1) i32 @H5D__btree_idx_copy_shutdown(ptr noundef readonly captures(none) %0, ptr noundef readonly captures(none) %1) #0 {
  %3 = load i8, ptr @H5D_init_g, align 1, !tbaa !3, !range !7, !noundef !8
  %4 = trunc nuw i8 %3 to i1
  %5 = load i8, ptr @H5_libterm_g, align 1, !range !7
  %6 = trunc nuw i8 %5 to i1
  %7 = xor i1 %6, true
  %8 = select i1 %4, i1 true, i1 %7
  br i1 %8, label %9, label %22, !prof !9

9:                                                ; preds = %2
  %10 = getelementptr inbounds nuw i8, ptr %0, i64 32
  %11 = load ptr, ptr %10, align 8, !tbaa !17
  %12 = tail call i32 @H5UC_decr(ptr noundef %11) #15
  %13 = icmp slt i32 %12, 0
  br i1 %13, label %.sink.split, label %14

14:                                               ; preds = %9
  %15 = getelementptr inbounds nuw i8, ptr %1, i64 32
  %16 = load ptr, ptr %15, align 8, !tbaa !17
  %17 = tail call i32 @H5UC_decr(ptr noundef %16) #15
  %18 = icmp slt i32 %17, 0
  br i1 %18, label %.sink.split, label %22

.sink.split:                                      ; preds = %14, %9
  %.sink = phi i32 [ 1294, %9 ], [ 1296, %14 ]
  %19 = load i64, ptr @H5E_DATASET_g, align 8, !tbaa !20
  %20 = load i64, ptr @H5E_CANTDEC_g, align 8, !tbaa !20
  %21 = tail call i32 (ptr, ptr, i32, i64, i64, ptr, ...) @H5E_printf_stack(ptr noundef nonnull @.str, ptr noundef nonnull @__func__.H5D__btree_idx_copy_shutdown, i32 noundef %.sink, i64 noundef %19, i64 noundef %20, ptr noundef nonnull @.str.13) #15
  br label %22

22:                                               ; preds = %.sink.split, %14, %2
  %.0 = phi i32 [ 0, %14 ], [ 0, %2 ], [ -1, %.sink.split ]
  ret i32 %.0
}